target datalayout = "e-m:e-p270:32:32-p271:32:32-p272:64:64-i64:64-i128:128-f80:128-n8:16:32:64-S128"
target triple = "x86_64-pc-linux-gnu"

%struct.cli_ftw_cbdata = type { ptr }
%struct.client_serial_data = type { i32, i32, i32, i32, i32 }

@clamdopts = external global ptr, align 8
@.str.3 = private unnamed_addr constant [42 x i8] c"Failed to determine real filename of %s.\0A\00", align 1
@.str.4 = private unnamed_addr constant [65 x i8] c"Quarantine of the file may fail if file path contains symlinks.\0A\00", align 1
@.str.5 = private unnamed_addr constant [22 x i8] c"Can't access file %s\0A\00", align 1
@.str.6 = private unnamed_addr constant [33 x i8] c"Memory allocation failed in ftw\0A\00", align 1
@.str.7 = private unnamed_addr constant [35 x i8] c"Directory recursion limit reached\0A\00", align 1
@.str.8 = private unnamed_addr constant [29 x i8] c"%s: Not supported file type\0A\00", align 1

; Function Attrs: nounwind uwtable
define internal i32 @serial_callback(ptr noundef %0, ptr noundef %1, ptr noundef %2, i32 noundef %3, ptr noundef %4) #0 {
  %6 = alloca ptr, align 8
  %7 = alloca ptr, align 8
  %8 = alloca ptr, align 8
  %9 = alloca i32, align 4
  %10 = alloca ptr, align 8
  %11 = alloca i32, align 4
  %12 = alloca ptr, align 8
  %13 = alloca i32, align 4
  %14 = alloca i32, align 4
  %15 = alloca ptr, align 8
  %16 = alloca ptr, align 8
  store ptr %0, ptr %6, align 8
  store ptr %1, ptr %7, align 8
  store ptr %2, ptr %8, align 8
  store i32 %3, ptr %9, align 4
  store ptr %4, ptr %10, align 8
  store i32 8, ptr %11, align 4
  %17 = load ptr, ptr %10, align 8
  %18 = getelementptr inbounds %struct.cli_ftw_cbdata, ptr %17, i32 0, i32 0
  %19 = load ptr, ptr %18, align 8
  store ptr %19, ptr %12, align 8
  %20 = load ptr, ptr %7, align 8
  store ptr %20, ptr %15, align 8
  store ptr null, ptr %16, align 8
  %21 = load i32, ptr %9, align 4
  %22 = icmp ne i32 %21, 1
  br i1 %22, label %23, label %34

23:                                               ; preds = %5
  %24 = load ptr, ptr %8, align 8
  %25 = call i32 @cli_realpath(ptr noundef %24, ptr noundef %16)
  %26 = icmp ne i32 0, %25
  br i1 %26, label %27, label %31

27:                                               ; preds = %23
  %28 = load ptr, ptr %8, align 8
  %29 = call i32 (i32, ptr, ...) @logg(i32 noundef 2, ptr noundef @.str.3, ptr noundef %28)
  %30 = call i32 (i32, ptr, ...) @logg(i32 noundef 2, ptr noundef @.str.4)
  br label %33

31:                                               ; preds = %23
  %32 = load ptr, ptr %16, align 8
  store ptr %32, ptr %8, align 8
  br label %33

33:                                               ; preds = %31, %27
  br label %34

34:                                               ; preds = %33, %5
  %35 = load ptr, ptr %8, align 8
  %36 = load ptr, ptr @clamdopts, align 8
  %37 = call i32 @chkpath(ptr noundef %35, ptr noundef %36)
  %38 = icmp ne i32 %37, 0
  br i1 %38, label %39, label %40

39:                                               ; preds = %34
  store i32 0, ptr %11, align 4
  br label %118

40:                                               ; preds = %34
  %41 = load ptr, ptr %12, align 8
  %42 = getelementptr inbounds %struct.client_serial_data, ptr %41, i32 0, i32 3
  %43 = load i32, ptr %42, align 4
  %44 = add nsw i32 %43, 1
  store i32 %44, ptr %42, align 4
  %45 = load i32, ptr %9, align 4
  switch i32 %45, label %78 [
    i32 3, label %46
    i32 2, label %53
    i32 6, label %59
    i32 4, label %61
    i32 5, label %62
    i32 1, label %69
    i32 0, label %77
  ]

46:                                               ; preds = %40
  %47 = load ptr, ptr %8, align 8
  %48 = call i32 (i32, ptr, ...) @logg(i32 noundef 5, ptr noundef @.str.5, ptr noundef %47)
  %49 = load ptr, ptr %12, align 8
  %50 = getelementptr inbounds %struct.client_serial_data, ptr %49, i32 0, i32 4
  %51 = load i32, ptr %50, align 4
  %52 = add nsw i32 %51, 1
  store i32 %52, ptr %50, align 4
  store i32 0, ptr %11, align 4
  br label %118

53:                                               ; preds = %40
  %54 = call i32 (i32, ptr, ...) @logg(i32 noundef 5, ptr noundef @.str.6)
  %55 = load ptr, ptr %12, align 8
  %56 = getelementptr inbounds %struct.client_serial_data, ptr %55, i32 0, i32 4
  %57 = load i32, ptr %56, align 4
  %58 = add nsw i32 %57, 1
  store i32 %58, ptr %56, align 4
  store i32 20, ptr %11, align 4
  br label %118

59:                                               ; preds = %40
  %60 = call i32 (i32, ptr, ...) @logg(i32 noundef 4, ptr noundef @.str.7)
  br label %61

61:                                               ; preds = %59, %40
  store i32 0, ptr %11, align 4
  br label %118

62:                                               ; preds = %40
  %63 = load ptr, ptr %8, align 8
  %64 = call i32 (i32, ptr, ...) @logg(i32 noundef 4, ptr noundef @.str.8, ptr noundef %63)
  %65 = load ptr, ptr %12, align 8
  %66 = getelementptr inbounds %struct.client_serial_data, ptr %65, i32 0, i32 4
  %67 = load i32, ptr %66, align 4
  %68 = add nsw i32 %67, 1
  store i32 %68, ptr %66, align 4
  store i32 0, ptr %11, align 4
  br label %118

69:                                               ; preds = %40
  %70 = load ptr, ptr %12, align 8
  %71 = getelementptr inbounds %struct.client_serial_data, ptr %70, i32 0, i32 1
  %72 = load i32, ptr %71, align 4
  %73 = icmp sge i32 %72, 2
  br i1 %73, label %74, label %75

74:                                               ; preds = %69
  store i32 0, ptr %11, align 4
  br label %118

75:                                               ; preds = %69
  %76 = load ptr, ptr %8, align 8
  store ptr %76, ptr %15, align 8
  br label %77

77:                                               ; preds = %75, %40
  br label %78

78:                                               ; preds = %77, %40
  %79 = load ptr, ptr @clamdopts, align 8
  %80 = call i32 @dconnect(ptr noundef %79)
  store i32 %80, ptr %13, align 4
  %81 = icmp slt i32 %80, 0
  br i1 %81, label %82, label %87

82:                                               ; preds = %78
  %83 = load ptr, ptr %12, align 8
  %84 = getelementptr inbounds %struct.client_serial_data, ptr %83, i32 0, i32 4
  %85 = load i32, ptr %84, align 4
  %86 = add nsw i32 %85, 1
  store i32 %86, ptr %84, align 4
  br label %118

87:                                               ; preds = %78
  %88 = load i32, ptr %13, align 4
  %89 = load ptr, ptr %12, align 8
  %90 = getelementptr inbounds %struct.client_serial_data, ptr %89, i32 0, i32 1
  %91 = load i32, ptr %90, align 4
  %92 = load ptr, ptr %15, align 8
  %93 = load ptr, ptr %12, align 8
  %94 = getelementptr inbounds %struct.client_serial_data, ptr %93, i32 0, i32 2
  %95 = load ptr, ptr %12, align 8
  %96 = getelementptr inbounds %struct.client_serial_data, ptr %95, i32 0, i32 4
  %97 = load ptr, ptr @clamdopts, align 8
  %98 = call i32 @dsresult(i32 noundef %88, i32 noundef %91, ptr noundef %92, ptr noundef %94, ptr noundef %96, ptr noundef %97)
  store i32 %98, ptr %14, align 4
  %99 = load i32, ptr %13, align 4
  %100 = call i32 @close(i32 noundef %99)
  %101 = load i32, ptr %14, align 4
  %102 = icmp slt i32 %101, 0
  br i1 %102, label %103, label %108

103:                                              ; preds = %87
  %104 = load ptr, ptr %12, align 8
  %105 = getelementptr inbounds %struct.client_serial_data, ptr %104, i32 0, i32 4
  %106 = load i32, ptr %105, align 4
  %107 = add nsw i32 %106, 1
  store i32 %107, ptr %105, align 4
  br label %118

108:                                              ; preds = %87
  %109 = load i32, ptr %14, align 4
  %110 = load ptr, ptr %12, align 8
  %111 = getelementptr inbounds %struct.client_serial_data, ptr %110, i32 0, i32 0
  %112 = load i32, ptr %111, align 4
  %113 = add nsw i32 %112, %109
  store i32 %113, ptr %111, align 4
  %114 = load i32, ptr %9, align 4
  %115 = icmp eq i32 %114, 1
  br i1 %115, label %116, label %117

116:                                              ; preds = %108
  store i32 22, ptr %11, align 4
  br label %118

117:                                              ; preds = %108
  store i32 0, ptr %11, align 4
  br label %118

118:                                              ; preds = %117, %116, %103, %82, %74, %62, %61, %53, %46, %39
  %119 = load ptr, ptr %16, align 8
  %120 = icmp ne ptr null, %119
  br i1 %120, label %121, label %123

121:                                              ; preds = %118
  %122 = load ptr, ptr %16, align 8
  call void @free(ptr noundef %122) #7
  br label %123

123:                                              ; preds = %121, %118
  %124 = load ptr, ptr %7, align 8
  call void @free(ptr noundef %124) #7
  %125 = load i32, ptr %11, align 4
  ret i32 %125
}