; Function Attrs: nounwind uwtable
define internal range(i32 0, 23) i32 @serial_callback(ptr readnone captures(none) %0, ptr noundef %1, ptr noundef %2, i32 noundef %3, ptr noundef readonly captures(none) %4) #0 {
  %6 = alloca ptr, align 8
  %7 = load ptr, ptr %4, align 8
  store ptr null, ptr %6, align 8
  %.not = icmp eq i32 %3, 1
  br i1 %.not, label %15, label %8

8:                                                ; preds = %5
  %9 = call i32 @cli_realpath(ptr noundef %2, ptr noundef nonnull %6) #11
  %.not33 = icmp eq i32 %9, 0
  br i1 %.not33, label %13, label %10

10:                                               ; preds = %8
  %11 = call i32 (i32, ptr, ...) @logg(i32 noundef 2, ptr noundef nonnull @.str.3, ptr noundef %2) #11
  %12 = call i32 (i32, ptr, ...) @logg(i32 noundef 2, ptr noundef nonnull @.str.4) #11
  br label %15

13:                                               ; preds = %8
  %14 = load ptr, ptr %6, align 8
  br label %15

15:                                               ; preds = %10, %13, %5
  %.028 = phi ptr [ %2, %10 ], [ %14, %13 ], [ %2, %5 ]
  %16 = load ptr, ptr @clamdopts, align 8
  %17 = call i32 @chkpath(ptr noundef %.028, ptr noundef %16) #11
  %.not34 = icmp eq i32 %17, 0
  br i1 %.not34, label %18, label %66

18:                                               ; preds = %15
  %19 = getelementptr inbounds nuw i8, ptr %7, i64 12
  %20 = load i32, ptr %19, align 4
  %21 = add nsw i32 %20, 1
  store i32 %21, ptr %19, align 4
  switch i32 %3, label %43 [
    i32 3, label %22
    i32 2, label %27
    i32 6, label %32
    i32 4, label %66
    i32 5, label %34
    i32 1, label %39
  ]

22:                                               ; preds = %18
  %23 = call i32 (i32, ptr, ...) @logg(i32 noundef 5, ptr noundef nonnull @.str.5, ptr noundef %.028) #11
  %24 = getelementptr inbounds nuw i8, ptr %7, i64 16
  %25 = load i32, ptr %24, align 4
  %26 = add nsw i32 %25, 1
  store i32 %26, ptr %24, align 4
  br label %66

27:                                               ; preds = %18
  %28 = call i32 (i32, ptr, ...) @logg(i32 noundef 5, ptr noundef nonnull @.str.6) #11
  %29 = getelementptr inbounds nuw i8, ptr %7, i64 16
  %30 = load i32, ptr %29, align 4
  %31 = add nsw i32 %30, 1
  store i32 %31, ptr %29, align 4
  br label %66

32:                                               ; preds = %18
  %33 = call i32 (i32, ptr, ...) @logg(i32 noundef 4, ptr noundef nonnull @.str.7) #11
  br label %66

34:                                               ; preds = %18
  %35 = call i32 (i32, ptr, ...) @logg(i32 noundef 4, ptr noundef nonnull @.str.8, ptr noundef %.028) #11
  %36 = getelementptr inbounds nuw i8, ptr %7, i64 16
  %37 = load i32, ptr %36, align 4
  %38 = add nsw i32 %37, 1
  store i32 %38, ptr %36, align 4
  br label %66

39:                                               ; preds = %18
  %40 = getelementptr inbounds nuw i8, ptr %7, i64 4
  %41 = load i32, ptr %40, align 4
  %42 = icmp sgt i32 %41, 1
  br i1 %42, label %66, label %43

43:                                               ; preds = %39, %18
  %.0 = phi ptr [ %1, %18 ], [ %.028, %39 ]
  %44 = load ptr, ptr @clamdopts, align 8
  %45 = call i32 @dconnect(ptr noundef %44) #11
  %46 = icmp slt i32 %45, 0
  br i1 %46, label %47, label %51

47:                                               ; preds = %43
  %48 = getelementptr inbounds nuw i8, ptr %7, i64 16
  %49 = load i32, ptr %48, align 4
  %50 = add nsw i32 %49, 1
  store i32 %50, ptr %48, align 4
  br label %66

51:                                               ; preds = %43
  %52 = getelementptr inbounds nuw i8, ptr %7, i64 4
  %53 = load i32, ptr %52, align 4
  %54 = getelementptr inbounds nuw i8, ptr %7, i64 8
  %55 = getelementptr inbounds nuw i8, ptr %7, i64 16
  %56 = load ptr, ptr @clamdopts, align 8
  %57 = call i32 @dsresult(i32 noundef %45, i32 noundef %53, ptr noundef %.0, ptr noundef nonnull %54, ptr noundef nonnull %55, ptr noundef %56) #11
  %58 = call i32 @close(i32 noundef %45) #11
  %59 = icmp slt i32 %57, 0
  br i1 %59, label %60, label %63

60:                                               ; preds = %51
  %61 = load i32, ptr %55, align 4
  %62 = add nsw i32 %61, 1
  store i32 %62, ptr %55, align 4
  br label %66

63:                                               ; preds = %51
  %64 = load i32, ptr %7, align 4
  %65 = add nsw i32 %64, %57
  store i32 %65, ptr %7, align 4
  %. = select i1 %.not, i32 22, i32 0
  br label %66

66:                                               ; preds = %63, %39, %18, %32, %15, %60, %47, %34, %27, %22
  %.029 = phi i32 [ 8, %47 ], [ 8, %60 ], [ 0, %34 ], [ 20, %27 ], [ 0, %22 ], [ 0, %15 ], [ 0, %32 ], [ 0, %18 ], [ 0, %39 ], [ %., %63 ]
  %67 = load ptr, ptr %6, align 8
  %.not35 = icmp eq ptr %67, null
  br i1 %.not35, label %69, label %68

68:                                               ; preds = %66
  call void @free(ptr noundef nonnull %67) #11
  br label %69

69:                                               ; preds = %68, %66
  call void @free(ptr noundef %1) #11
  ret i32 %.029
}